target datalayout = "e-m:e-p270:32:32-p271:32:32-p272:64:64-i64:64-i128:128-f80:128-n8:16:32:64-S128"
target triple = "x86_64-pc-linux-gnu"

%struct.LogicalTapeSet = type { ptr, ptr, i32, i64, i64, i64, i8, ptr, i64, i64, i8 }
%struct.TapeShare = type { i64 }
%struct.LogicalTape = type { ptr, i8, i8, i8, i64, i64, i64, i64, ptr, i32, i32, i32, i32, ptr, i32, i32 }
%struct.TapeBlockTrailer = type { i64, i64 }

@.str.1 = private unnamed_addr constant [10 x i8] c"logtape.c\00", align 1
@.str.6 = private unnamed_addr constant [47 x i8] c"could not seek to block %lld of temporary file\00", align 1
@__func__.ltsReadBlock = private unnamed_addr constant [13 x i8] c"ltsReadBlock\00", align 1

; Function Attrs: nounwind uwtable
define internal void @ltsReadBlock(ptr noundef %0, i64 noundef %1, ptr noundef %2) #0 {
  %4 = alloca ptr, align 8
  %5 = alloca i64, align 8
  %6 = alloca ptr, align 8
  store ptr %0, ptr %4, align 8
  store i64 %1, ptr %5, align 8
  store ptr %2, ptr %6, align 8
  %7 = load ptr, ptr %4, align 8
  %8 = getelementptr inbounds nuw %struct.LogicalTapeSet, ptr %7, i32 0, i32 0
  %9 = load ptr, ptr %8, align 8
  %10 = load i64, ptr %5, align 8
  %11 = call i32 @BufFileSeekBlock(ptr noundef %9, i64 noundef %10)
  %12 = icmp ne i32 %11, 0
  br i1 %12, label %13, label %25

13:                                               ; preds = %3
  br label %14

14:                                               ; preds = %13
  br i1 true, label %15, label %17

15:                                               ; preds = %14
  %16 = call zeroext i1 @errstart_cold(i32 noundef 21, ptr noundef null) #8
  br i1 %16, label %19, label %23

17:                                               ; preds = %14
  %18 = call zeroext i1 @errstart(i32 noundef 21, ptr noundef null)
  br i1 %18, label %19, label %23

19:                                               ; preds = %17, %15
  %20 = call i32 @errcode_for_file_access()
  %21 = load i64, ptr %5, align 8
  %22 = call i32 (ptr, ...) @errmsg(ptr noundef @.str.6, i64 noundef %21)
  call void @errfinish(ptr noundef @.str.1, i32 noundef 288, ptr noundef @__func__.ltsReadBlock)
  br label %23

23:                                               ; preds = %19, %17, %15
  unreachable

24:                                               ; No predecessors!
  br label %25

25:                                               ; preds = %24, %3
  %26 = load ptr, ptr %4, align 8
  %27 = getelementptr inbounds nuw %struct.LogicalTapeSet, ptr %26, i32 0, i32 0
  %28 = load ptr, ptr %27, align 8
  %29 = load ptr, ptr %6, align 8
  call void @BufFileReadExact(ptr noundef %28, ptr noundef %29, i64 noundef 8192)
  ret void
}

; Function Attrs: nounwind uwtable
define dso_local void @LogicalTapeFreeze(ptr noundef %0, ptr noundef %1) #0 {
  %3 = alloca ptr, align 8
  %4 = alloca ptr, align 8
  %5 = alloca ptr, align 8
  store ptr %0, ptr %3, align 8
  store ptr %1, ptr %4, align 8
  call void @llvm.lifetime.start.p0(i64 8, ptr %5) #7
  %6 = load ptr, ptr %3, align 8
  %7 = getelementptr inbounds nuw %struct.LogicalTape, ptr %6, i32 0, i32 0
  %8 = load ptr, ptr %7, align 8
  store ptr %8, ptr %5, align 8
  %9 = load ptr, ptr %3, align 8
  %10 = getelementptr inbounds nuw %struct.LogicalTape, ptr %9, i32 0, i32 3
  %11 = load i8, ptr %10, align 2, !range !4, !noundef !5
  %12 = trunc i8 %11 to i1
  br i1 %12, label %13, label %36

13:                                               ; preds = %2
  br label %14

14:                                               ; preds = %13
  br label %15

15:                                               ; preds = %14
  br label %16

16:                                               ; preds = %15
  %17 = load ptr, ptr %3, align 8
  %18 = getelementptr inbounds nuw %struct.LogicalTape, ptr %17, i32 0, i32 12
  %19 = load i32, ptr %18, align 4
  %20 = sub i32 0, %19
  %21 = sext i32 %20 to i64
  %22 = load ptr, ptr %3, align 8
  %23 = getelementptr inbounds nuw %struct.LogicalTape, ptr %22, i32 0, i32 8
  %24 = load ptr, ptr %23, align 8
  %25 = getelementptr inbounds nuw i8, ptr %24, i64 8176
  %26 = getelementptr inbounds nuw %struct.TapeBlockTrailer, ptr %25, i32 0, i32 1
  store i64 %21, ptr %26, align 8
  %27 = load ptr, ptr %3, align 8
  %28 = getelementptr inbounds nuw %struct.LogicalTape, ptr %27, i32 0, i32 0
  %29 = load ptr, ptr %28, align 8
  %30 = load ptr, ptr %3, align 8
  %31 = getelementptr inbounds nuw %struct.LogicalTape, ptr %30, i32 0, i32 5
  %32 = load i64, ptr %31, align 8
  %33 = load ptr, ptr %3, align 8
  %34 = getelementptr inbounds nuw %struct.LogicalTape, ptr %33, i32 0, i32 8
  %35 = load ptr, ptr %34, align 8
  call void @ltsWriteBlock(ptr noundef %29, i64 noundef %32, ptr noundef %35)
  br label %36

36:                                               ; preds = %16, %2
  %37 = load ptr, ptr %3, align 8
  %38 = getelementptr inbounds nuw %struct.LogicalTape, ptr %37, i32 0, i32 1
  store i8 0, ptr %38, align 8
  %39 = load ptr, ptr %3, align 8
  %40 = getelementptr inbounds nuw %struct.LogicalTape, ptr %39, i32 0, i32 2
  store i8 1, ptr %40, align 1
  %41 = load ptr, ptr %3, align 8
  %42 = getelementptr inbounds nuw %struct.LogicalTape, ptr %41, i32 0, i32 8
  %43 = load ptr, ptr %42, align 8
  %44 = icmp ne ptr %43, null
  br i1 %44, label %45, label %50

45:                                               ; preds = %36
  %46 = load ptr, ptr %3, align 8
  %47 = getelementptr inbounds nuw %struct.LogicalTape, ptr %46, i32 0, i32 9
  %48 = load i32, ptr %47, align 8
  %49 = icmp ne i32 %48, 8192
  br i1 %49, label %50, label %65

50:                                               ; preds = %45, %36
  %51 = load ptr, ptr %3, align 8
  %52 = getelementptr inbounds nuw %struct.LogicalTape, ptr %51, i32 0, i32 8
  %53 = load ptr, ptr %52, align 8
  %54 = icmp ne ptr %53, null
  br i1 %54, label %55, label %59

55:                                               ; preds = %50
  %56 = load ptr, ptr %3, align 8
  %57 = getelementptr inbounds nuw %struct.LogicalTape, ptr %56, i32 0, i32 8
  %58 = load ptr, ptr %57, align 8
  call void @pfree(ptr noundef %58)
  br label %59

59:                                               ; preds = %55, %50
  %60 = call ptr @palloc(i64 noundef 8192)
  %61 = load ptr, ptr %3, align 8
  %62 = getelementptr inbounds nuw %struct.LogicalTape, ptr %61, i32 0, i32 8
  store ptr %60, ptr %62, align 8
  %63 = load ptr, ptr %3, align 8
  %64 = getelementptr inbounds nuw %struct.LogicalTape, ptr %63, i32 0, i32 9
  store i32 8192, ptr %64, align 8
  br label %65

65:                                               ; preds = %59, %45
  %66 = load ptr, ptr %3, align 8
  %67 = getelementptr inbounds nuw %struct.LogicalTape, ptr %66, i32 0, i32 4
  %68 = load i64, ptr %67, align 8
  %69 = load ptr, ptr %3, align 8
  %70 = getelementptr inbounds nuw %struct.LogicalTape, ptr %69, i32 0, i32 5
  store i64 %68, ptr %70, align 8
  %71 = load ptr, ptr %3, align 8
  %72 = getelementptr inbounds nuw %struct.LogicalTape, ptr %71, i32 0, i32 11
  store i32 0, ptr %72, align 8
  %73 = load ptr, ptr %3, align 8
  %74 = getelementptr inbounds nuw %struct.LogicalTape, ptr %73, i32 0, i32 12
  store i32 0, ptr %74, align 4
  %75 = load ptr, ptr %3, align 8
  %76 = getelementptr inbounds nuw %struct.LogicalTape, ptr %75, i32 0, i32 4
  %77 = load i64, ptr %76, align 8
  %78 = icmp eq i64 %77, -1
  br i1 %78, label %79, label %82

79:                                               ; preds = %65
  %80 = load ptr, ptr %3, align 8
  %81 = getelementptr inbounds nuw %struct.LogicalTape, ptr %80, i32 0, i32 6
  store i64 -1, ptr %81, align 8
  br label %82

82:                                               ; preds = %79, %65
  %83 = load ptr, ptr %3, align 8
  %84 = getelementptr inbounds nuw %struct.LogicalTape, ptr %83, i32 0, i32 0
  %85 = load ptr, ptr %84, align 8
  %86 = load ptr, ptr %3, align 8
  %87 = getelementptr inbounds nuw %struct.LogicalTape, ptr %86, i32 0, i32 5
  %88 = load i64, ptr %87, align 8
  %89 = load ptr, ptr %3, align 8
  %90 = getelementptr inbounds nuw %struct.LogicalTape, ptr %89, i32 0, i32 8
  %91 = load ptr, ptr %90, align 8
  call void @ltsReadBlock(ptr noundef %85, i64 noundef %88, ptr noundef %91)
  %92 = load ptr, ptr %3, align 8
  %93 = getelementptr inbounds nuw %struct.LogicalTape, ptr %92, i32 0, i32 8
  %94 = load ptr, ptr %93, align 8
  %95 = getelementptr inbounds nuw i8, ptr %94, i64 8176
  %96 = getelementptr inbounds nuw %struct.TapeBlockTrailer, ptr %95, i32 0, i32 1
  %97 = load i64, ptr %96, align 8
  %98 = icmp slt i64 %97, 0
  br i1 %98, label %99, label %102

99:                                               ; preds = %82
  %100 = load ptr, ptr %3, align 8
  %101 = getelementptr inbounds nuw %struct.LogicalTape, ptr %100, i32 0, i32 6
  store i64 -1, ptr %101, align 8
  br label %111

102:                                              ; preds = %82
  %103 = load ptr, ptr %3, align 8
  %104 = getelementptr inbounds nuw %struct.LogicalTape, ptr %103, i32 0, i32 8
  %105 = load ptr, ptr %104, align 8
  %106 = getelementptr inbounds nuw i8, ptr %105, i64 8176
  %107 = getelementptr inbounds nuw %struct.TapeBlockTrailer, ptr %106, i32 0, i32 1
  %108 = load i64, ptr %107, align 8
  %109 = load ptr, ptr %3, align 8
  %110 = getelementptr inbounds nuw %struct.LogicalTape, ptr %109, i32 0, i32 6
  store i64 %108, ptr %110, align 8
  br label %111

111:                                              ; preds = %102, %99
  %112 = load ptr, ptr %3, align 8
  %113 = getelementptr inbounds nuw %struct.LogicalTape, ptr %112, i32 0, i32 8
  %114 = load ptr, ptr %113, align 8
  %115 = getelementptr inbounds nuw i8, ptr %114, i64 8176
  %116 = getelementptr inbounds nuw %struct.TapeBlockTrailer, ptr %115, i32 0, i32 1
  %117 = load i64, ptr %116, align 8
  %118 = icmp slt i64 %117, 0
  br i1 %118, label %119, label %127

119:                                              ; preds = %111
  %120 = load ptr, ptr %3, align 8
  %121 = getelementptr inbounds nuw %struct.LogicalTape, ptr %120, i32 0, i32 8
  %122 = load ptr, ptr %121, align 8
  %123 = getelementptr inbounds nuw i8, ptr %122, i64 8176
  %124 = getelementptr inbounds nuw %struct.TapeBlockTrailer, ptr %123, i32 0, i32 1
  %125 = load i64, ptr %124, align 8
  %126 = sub i64 0, %125
  br label %128

127:                                              ; preds = %111
  br label %128

128:                                              ; preds = %127, %119
  %129 = phi i64 [ %126, %119 ], [ 8176, %127 ]
  %130 = trunc i64 %129 to i32
  %131 = load ptr, ptr %3, align 8
  %132 = getelementptr inbounds nuw %struct.LogicalTape, ptr %131, i32 0, i32 12
  store i32 %130, ptr %132, align 4
  %133 = load ptr, ptr %4, align 8
  %134 = icmp ne ptr %133, null
  br i1 %134, label %135, label %144

135:                                              ; preds = %128
  %136 = load ptr, ptr %5, align 8
  %137 = getelementptr inbounds nuw %struct.LogicalTapeSet, ptr %136, i32 0, i32 0
  %138 = load ptr, ptr %137, align 8
  call void @BufFileExportFileSet(ptr noundef %138)
  %139 = load ptr, ptr %3, align 8
  %140 = getelementptr inbounds nuw %struct.LogicalTape, ptr %139, i32 0, i32 4
  %141 = load i64, ptr %140, align 8
  %142 = load ptr, ptr %4, align 8
  %143 = getelementptr inbounds nuw %struct.TapeShare, ptr %142, i32 0, i32 0
  store i64 %141, ptr %143, align 8
  br label %144

144:                                              ; preds = %135, %128
  call void @llvm.lifetime.end.p0(i64 8, ptr %5) #7
  ret void
}