; Function Attrs: nounwind uwtable
define dso_local void @LogicalTapeFreeze(ptr noundef captures(none) initializes((8, 10), (64, 68)) %0, ptr noundef writeonly captures(address_is_null) %1) local_unnamed_addr #0 {
  %3 = load ptr, ptr %0, align 8
  %4 = getelementptr inbounds nuw i8, ptr %0, i64 10
  %5 = load i8, ptr %4, align 2, !range !4, !noundef !5
  %6 = trunc nuw i8 %5 to i1
  br i1 %6, label %7, label %19

7:                                                ; preds = %2
  %8 = getelementptr inbounds nuw i8, ptr %0, i64 68
  %9 = load i32, ptr %8, align 4
  %10 = sub i32 0, %9
  %11 = sext i32 %10 to i64
  %12 = getelementptr inbounds nuw i8, ptr %0, i64 48
  %13 = load ptr, ptr %12, align 8
  %14 = getelementptr inbounds nuw i8, ptr %13, i64 8184
  store i64 %11, ptr %14, align 8
  %15 = load ptr, ptr %0, align 8
  %16 = getelementptr inbounds nuw i8, ptr %0, i64 24
  %17 = load i64, ptr %16, align 8
  %18 = load ptr, ptr %12, align 8
  tail call fastcc void @ltsWriteBlock(ptr noundef %15, i64 noundef %17, ptr noundef %18)
  br label %19

19:                                               ; preds = %7, %2
  %20 = getelementptr inbounds nuw i8, ptr %0, i64 8
  store i8 0, ptr %20, align 8
  %21 = getelementptr inbounds nuw i8, ptr %0, i64 9
  store i8 1, ptr %21, align 1
  %22 = getelementptr inbounds nuw i8, ptr %0, i64 48
  %23 = load ptr, ptr %22, align 8
  %.not = icmp eq ptr %23, null
  br i1 %.not, label %.thread, label %24

24:                                               ; preds = %19
  %25 = getelementptr inbounds nuw i8, ptr %0, i64 56
  %26 = load i32, ptr %25, align 8
  %.not38 = icmp eq i32 %26, 8192
  br i1 %.not38, label %30, label %27

27:                                               ; preds = %24
  tail call void @pfree(ptr noundef nonnull %23) #10
  br label %.thread

.thread:                                          ; preds = %19, %27
  %28 = tail call ptr @palloc(i64 noundef 8192) #10
  store ptr %28, ptr %22, align 8
  %29 = getelementptr inbounds nuw i8, ptr %0, i64 56
  store i32 8192, ptr %29, align 8
  br label %30

30:                                               ; preds = %.thread, %24
  %31 = phi ptr [ %28, %.thread ], [ %23, %24 ]
  %32 = getelementptr inbounds nuw i8, ptr %0, i64 16
  %33 = load i64, ptr %32, align 8
  %34 = getelementptr inbounds nuw i8, ptr %0, i64 24
  store i64 %33, ptr %34, align 8
  %35 = getelementptr inbounds nuw i8, ptr %0, i64 64
  store i32 0, ptr %35, align 8
  %36 = getelementptr inbounds nuw i8, ptr %0, i64 68
  store i32 0, ptr %36, align 4
  %37 = icmp eq i64 %33, -1
  br i1 %37, label %38, label %40

38:                                               ; preds = %30
  %39 = getelementptr inbounds nuw i8, ptr %0, i64 32
  store i64 -1, ptr %39, align 8
  br label %40

40:                                               ; preds = %38, %30
  %41 = load ptr, ptr %0, align 8
  %42 = load ptr, ptr %41, align 8
  %43 = tail call i32 @BufFileSeekBlock(ptr noundef %42, i64 noundef %33) #10
  %.not.i = icmp eq i32 %43, 0
  br i1 %.not.i, label %ltsReadBlock.exit, label %44

44:                                               ; preds = %40
  %45 = tail call zeroext i1 @errstart_cold(i32 noundef 21, ptr noundef null) #11
  tail call void @llvm.assume(i1 %45)
  %46 = tail call i32 @errcode_for_file_access() #10
  %47 = tail call i32 (ptr, ...) @errmsg(ptr noundef nonnull @.str.6, i64 noundef %33) #10
  tail call void @errfinish(ptr noundef nonnull @.str.1, i32 noundef 288, ptr noundef nonnull @__func__.ltsReadBlock) #10
  unreachable

ltsReadBlock.exit:                                ; preds = %40
  %48 = load ptr, ptr %41, align 8
  tail call void @BufFileReadExact(ptr noundef %48, ptr noundef %31, i64 noundef 8192) #10
  %49 = load ptr, ptr %22, align 8
  %50 = getelementptr inbounds nuw i8, ptr %49, i64 8184
  %51 = load i64, ptr %50, align 8
  %spec.select = tail call i64 @llvm.smax.i64(i64 %51, i64 -1)
  %52 = getelementptr inbounds nuw i8, ptr %0, i64 32
  store i64 %spec.select, ptr %52, align 8
  %53 = load i64, ptr %50, align 8
  %54 = icmp slt i64 %53, 0
  %55 = trunc i64 %53 to i32
  %56 = sub i32 0, %55
  %57 = select i1 %54, i32 %56, i32 8176
  store i32 %57, ptr %36, align 4
  %.not40 = icmp eq ptr %1, null
  br i1 %.not40, label %61, label %58

58:                                               ; preds = %ltsReadBlock.exit
  %59 = load ptr, ptr %3, align 8
  tail call void @BufFileExportFileSet(ptr noundef %59) #10
  %60 = load i64, ptr %32, align 8
  store i64 %60, ptr %1, align 8
  br label %61

61:                                               ; preds = %58, %ltsReadBlock.exit
  ret void
}